(ibook3
Book5
p0
(dp1
S'status'
p2
S'Available'
p3
sS'Status'
p4
S'Not available'
p5
sS'name'
p6
S'The Canterville Ghost'
p7
sS'author'
p8
S'Oscar Wilde'
p9
sS'price'
p10
I100
sS'number'
p11
I1
sS'Qty'
p12
I3
sS'genre'
p13
S'Horror and Fiction'
p14
sS'summary'
p15
S"The story is about a family who moves to a castle haunted by the ghost of a dead nobleman, who killed his wife and was starved to death by his wife's brothers. It has been adapted for the stage and screen several times."
p16
sb.(ibook3
Book5
p0
(dp1
S'status'
p2
S'Available'
p3
sS'Status'
p4
S'Available'
p5
sS'name'
p6
S'The Silmarillion'
p7
sS'author'
p8
S'J.R.R. Tolkien'
p9
sS'price'
p10
I500
sS'number'
p11
I2
sS'Qty'
p12
I7
sS'genre'
p13
S'Mythopoeia/Fantasy'
p14
sS'summary'
p15
S'The "Bible" of Middle-Earth, the "Silmarillion" stretches from the beginning of time to the departure of the Elves from Middle-earth.'
p16
sb.(ibook3
Book5
p0
(dp1
S'status'
p2
S'Available'
p3
sS'Status'
p4
S'Available'
p5
sS'name'
p6
S'Silas Marner'
p7
sS'author'
p8
S'George Elliot'
p9
sS'price'
p10
I200
sS'number'
p11
I3
sS'Qty'
p12
I20
sS'genre'
p13
S'Novel'
p14
sS'summary'
p15
S' An outwardly simple tale of a linen weaver, it is notable for its strong realism and its sophisticated treatment of a variety of issues ranging from religion to industrialisation to community.'
p16
sb.(ibook3
Book5
p0
(dp1
S'status'
p2
S'Available'
p3
sS'Status'
p4
S'Available'
p5
sS'name'
p6
S'Ulysses'
p7
sS'author'
p8
S'James Joyce'
p9
sS'price'
p10
I200
sS'number'
p11
I4
sS'Qty'
p12
I1
sS'genre'
p13
S'Novel, Fiction'
p14
sS'summary'
p15
S'Ulysses chronicles the passage of Leopold Bloom through Dublin during an ordinary day, June 16, 1904.'
p16
sb.(ibook3
Book5
p0
(dp1
S'status'
p2
S'Available'
p3
sS'Status'
p4
S'Available'
p5
sS'name'
p6
S'The Odyssey'
p7
sS'author'
p8
S'Homer'
p9
sS'price'
p10
I200
sS'number'
p11
I5
sS'Qty'
p12
I2
sS'genre'
p13
S' Epic poetry, Epic'
p14
sS'summary'
p15
S'The Odyssey is one of two major ancient Greek epic poems attributed to Homer. It is, in part, a sequel to the Iliad, the other work traditionally ascribed to Homer.'
p16
sb.(ibook3
Book5
p0
(dp1
S'status'
p2
S'Available'
p3
sS'Status'
p4
S'Available'
p5
sS'name'
p6
S'Hamlet'
p7
sS'author'
p8
S'William Shakespeare'
p9
sS'price'
p10
I300
sS'number'
p11
I6
sS'Qty'
p12
I9
sS'genre'
p13
S'Tragedy'
p14
sS'summary'
p15
S"Set in Denmark, the play dramatises the revenge Prince Hamlet is called to wreak upon his uncle, Claudius, by the ghost of Hamlet's father, King Hamlet."
p16
sb.(ibook3
Book5
p0
(dp1
S'status'
p2
S'Available'
p3
sS'Status'
p4
S'Available'
p5
sS'name'
p6
S'The Secret Garden'
p7
sS'author'
p8
S'Frances Hodgson Burnett'
p9
sS'price'
p10
I150
sS'number'
p11
I2
sS'Qty'
p12
I2
sS'genre'
p13
S"Children's novel"
p14
sS'summary'
p15
S"The book tells the story of Mary Lennox, a spoiled, contrary, solitary child raised in India but sent to live in her Uncle's Manor in Yorkshire after her parent's death"
p16
sb.(ibook3
Book5
p0
(dp1
S'status'
p2
S'Available'
p3
sS'Status'
p4
S'Available'
p5
sS'name'
p6
S'Paradise Lost'
p7
sS'author'
p8
S'John Milton'
p9
sS'price'
p10
I400
sS'number'
p11
I8
sS'Qty'
p12
I5
sS'genre'
p13
S'Epic poetry'
p14
sS'summary'
p15
S'Paradise Lost is an epic poem in blank verse by the 17th-century English poet John Milton.'
p16
sb.(ibook3
Book5
p0
(dp1
S'status'
p2
S'Available'
p3
sS'Status'
p4
S'Available'
p5
sS'name'
p6
S'The Magic Mountain'
p7
sS'author'
p8
S'Thomas Mann'
p9
sS'price'
p10
I250
sS'number'
p11
I9
sS'Qty'
p12
I1
sS'genre'
p13
S'Bildungsroman'
p14
sS'summary'
p15
S' It is widely considered to be one of the most influential works of 20th century German literature.'
p16
sb.(ibook3
Book5
p0
(dp1
S'status'
p2
S'Available'
p3
sS'Status'
p4
S'Available'
p5
sS'name'
p6
S'Animal Farm'
p7
sS'author'
p8
S'George Orwell'
p9
sS'price'
p10
I200
sS'number'
p11
I10
sS'Qty'
p12
I2
sS'genre'
p13
S'Satire'
p14
sS'summary'
p15
S'The book reflects events leading up to the Russian Revolution of 1917 and then on into the Stalinist era of the Soviet Union.'
p16
sb.(ibook3
Book5
p0
(dp1
S'status'
p2
S'Available'
p3
sS'Status'
p4
S'Available'
p5
sS'name'
p6
S'The Castle'
p7
sS'author'
p8
S'Franz Kafka'
p9
sS'price'
p10
I200
sS'number'
p11
I11
sS'Qty'
p12
I1
sS'genre'
p13
S'Philosophical fiction/Comedy'
p14
sS'summary'
p15
S' In it a protagonist known only as K. arrives in a village and struggles to gain access to the mysterious authorities who govern it from a castle.'
p16
sb.(ibook3
Book5
p0
(dp1
S'status'
p2
S'Available'
p3
sS'Status'
p4
S'Available'
p5
sS'name'
p6
S'The ABC Bunny'
p7
sS'author'
p8
S'Wanda Gag'
p9
sS'price'
p10
I150
sS'number'
p11
I12
sS'Qty'
p12
I10
sS'genre'
p13
S"Children's literature"
p14
sS'summary'
p15
S"It is a children's alphabet book which was a Newbery Honor recipient in 1934."
p16
sb.(ibook3
Book5
p0
(dp1
S'status'
p2
S'Available'
p3
sS'Status'
p4
S'Available'
p5
sS'name'
p6
S'The Fairy Circus'
p7
sS'author'
p8
S'Dorothy P. Lathrop'
p9
sS'price'
p10
I100
sS'number'
p11
I13
sS'Qty'
p12
I20
sS'genre'
p13
S'Fairy tale'
p14
sS'summary'
p15
S' In this book, the fairies, enchanted by a human circus which visits their meadow, put on a circus of their own with the woodland creatures.'
p16
sb.(ibook3
Book5
p0
(dp1
S'status'
p2
S'Available'
p3
sS'Status'
p4
S'Available'
p5
sS'name'
p6
S'Stories I Only Tell My Friends: An Autobiography'
p7
sS'author'
p8
S'Rob Lowe'
p9
sS'price'
p10
I200
sS'number'
p11
I14
sS'Qty'
p12
I1
sS'genre'
p13
S'Biography, Autobiography'
p14
sS'summary'
p15
S'A wryly funny and surprisingly moving account of an extraordinary life lived almost entirely in the public eye'
p16
sb.(ibook3
Book5
p0
(dp1
S'status'
p2
S'Available'
p3
sS'Status'
p4
S'Available'
p5
sS'name'
p6
S'Ernie: The Autobiography'
p7
sS'author'
p8
S'Ernest Borgnine'
p9
sS'price'
p10
I200
sS'number'
p11
I15
sS'Qty'
p12
I4
sS'genre'
p13
S'Autobiography'
p14
sS'summary'
p15
S'True story of an Amish boy who at the age of nine left the simple life, and found out the world can be full of pitfalls.'
p16
sb.(ibook3
Book5
p0
(dp1
S'status'
p2
S'Available'
p3
sS'Status'
p4
S'Available'
p5
sS'name'
p6
S'Swordbird'
p7
sS'author'
p8
S'Nancy Yi Fan'
p9
sS'price'
p10
I150
sS'number'
p11
I16
sS'Qty'
p12
I3
sS'genre'
p13
S"Children's literature, Speculative fiction, Fantasy Fiction"
p14
sS'summary'
p15
S'An evil hawk named Turnatt attempts to rule the forest through brutality and intimidation. He captures birds to be his slaves and build a fortress, and he gets the bluejays and cardinals fighting against one another.'
p16
sb.(ibook3
Book5
p0
(dp1
S'status'
p2
S'Available'
p3
sS'Status'
p4
S'Available'
p5
sS'name'
p6
S'The Icarus Girl'
p7
sS'author'
p8
S'Helen Oyeyemi'
p9
sS'price'
p10
I180
sS'number'
p11
I17
sS'Qty'
p12
I1
sS'genre'
p13
S'Fiction, Psychological Fiction'
p14
sS'summary'
p15
S'Jessamy Harrison is eight years old. Sensitive, whimsical, possessed of a powerful imagination, she spends hours writing, reading or simply hiding in the dark warmth of the airing cupboard.'
p16
sb.(ibook3
Book5
p0
(dp1
S'status'
p2
S'Available'
p3
sS'Status'
p4
S'Available'
p5
sS'name'
p6
S'Oxford English Dictionary'
p7
sS'author'
p8
S'OxfordDictionaries.com'
p9
sS'price'
p10
I600
sS'number'
p11
I18
sS'Qty'
p12
I5
sS'genre'
p13
S'Dictionary'
p14
sS'summary'
p15
S"The world's most trusted English Dictionary and Thesaurus."
p16
sb.(ibook3
Book5
p0
(dp1
S'status'
p2
S'Not Available'
p3
sS'Status'
p4
S'Available'
p5
sS'name'
p6
S'The Sorrow Of Belgium'
p7
sS'author'
p8
S'Hugo Claus'
p9
sS'price'
p10
I300
sS'number'
p11
I19
sS'Qty'
p12
I0
sS'genre'
p13
S'Novel, Fiction'
p14
sS'summary'
p15
S"It tells the story of the childhood and youth of Louis Seynaeve (Claus's alter ego) in the Flemish village of Walle (a part of Kortrijk) from 1939 to 1947, coinciding with the period Second World War, the German occupation of Belgium, and its aftermath."
p16
sb.(ibook3
Book5
p0
(dp1
S'status'
p2
S'Available'
p3
sS'Status'
p4
S'Available'
p5
sS'name'
p6
S'The Bridge On The Drina'
p7
sS'author'
p8
S'Ivo Andric'
p9
sS'price'
p10
I250
sS'number'
p11
I20
sS'Qty'
p12
I2
sS'genre'
p13
S'Historical novel'
p14
sS'summary'
p15
S' It revolves around the Mehmed Pa\x9aa Sokolovic Bridge in Vi\x9aegrad, which spans the Drina River and stands as a silent witness to history from its construction by the Ottomans in the mid-16th century until its partial destruction during World War I. '
p16
sb.(ibook3
Book5
p0
(dp1
S'status'
p2
S'Available'
p3
sS'Status'
p4
S'Available'
p5
sS'name'
p6
S'The Little White Horse'
p7
sS'author'
p8
S'Elizabeth Goudge'
p9
sS'price'
p10
I200
sS'number'
p11
I21
sS'Qty'
p12
I5
sS'genre'
p13
S"Fiction, Children't literature, Fantasy Fiction"
p14
sS'summary'
p15
S'It features a recently orphaned teenage girl who is sent to the manor house of her cousin of England. The estate, village, and vicinity are shrouded in mystery and magic; the "little white horse" is a unicorn'
p16
sb.(ibook3
Book5
p0
(dp1
S'status'
p2
S'Available'
p3
sS'Status'
p4
S'Available'
p5
sS'name'
p6
S"Cat's Cradle"
p7
sS'author'
p8
S'Kurt Vonnegut'
p9
sS'price'
p10
I200
sS'number'
p11
I22
sS'Qty'
p12
I2
sS'genre'
p13
S'Humour, Satire, Fiction, Science Fiction, Speculative fiction'
p14
sS'summary'
p15
S'It explores issues of science, technology, and religion, satirizing the arms race and many other targets along the way.'
p16
sb.(ibook3
Book5
p0
(dp1
S'status'
p2
S'Available'
p3
sS'Status'
p4
S'Available'
p5
sS'name'
p6
S'The Da Vinci Code'
p7
sS'author'
p8
S'Dan Brown'
p9
sS'price'
p10
I200
sS'number'
p11
I23
sS'Qty'
p12
I2
sS'genre'
p13
S'Mystery, Detective fiction, Conspiracy fiction, Thriller'
p14
sS'summary'
p15
S' It follows symbologist Robert Langdon and cryptologist Sophie Neveu after a murder in the Louvre Museum in Paris causes them to become involved in a battle between the Priory of Sion and Opus Dei over the possibility of Jesus Christ having been a companion to Mary Magdalene.'
p16
sb.(ibook3
Book5
p0
(dp1
S'status'
p2
S'Available'
p3
sS'Status'
p4
S'Available'
p5
sS'name'
p6
S'The Alchemist'
p7
sS'author'
p8
S'Paulo Coelho'
p9
sS'price'
p10
I200
sS'number'
p11
I24
sS'Qty'
p12
I1
sS'genre'
p13
S'Quest, Adventure fiction, Fantasy Fiction'
p14
sS'summary'
p15
S'The Alchemist follows a young Andalusian shepherd in his journey to Egypt, after having a recurring dream of finding treasure there'
p16
sb.(ibook3
Book5
p0
(dp1
S'status'
p2
S'Available'
p3
sS'Status'
p4
S'Available'
p5
sS'name'
p6
S'Flowers In The Attic'
p7
sS'author'
p8
S'V. C. Andrews'
p9
sS'price'
p10
I250
sS'number'
p11
I25
sS'Qty'
p12
I1
sS'genre'
p13
S'Gothic fiction,novel'
p14
sS'summary'
p15
S'"Flowers in the Attic" weaves the twisted story of the Dollanganger kids who, after the unexpected death of their father, are asked by their mother Corrine to stay hidden in the attic of their wealthy grandparents\' mansion so she can reclaim the family fortune.'
p16
sb.(ibook3
Book5
p0
(dp1
S'status'
p2
S'Not Available'
p3
sS'Status'
p4
S'Available'
p5
sS'name'
p6
S'War And Peace'
p7
sS'author'
p8
S'Leo Tolstoy'
p9
sS'price'
p10
I200
sS'number'
p11
I26
sS'Qty'
p12
I0
sS'genre'
p13
S'Novel (Historical Fiction)'
p14
sS'summary'
p15
S'The novel chronicles the history of the French invasion of Russia and the impact of the Napoleonic era on Tsarist society through the stories of five Russian aristocratic families.'
p16
sb.(ibook3
Book5
p0
(dp1
S'status'
p2
S'Available'
p3
sS'Status'
p4
S'Available'
p5
sS'name'
p6
S'The Diary Of A Young Girl'
p7
sS'author'
p8
S'Anne Frank'
p9
sS'price'
p10
I200
sS'number'
p11
I27
sS'Qty'
p12
I2
sS'genre'
p13
S'Autobiography'
p14
sS'summary'
p15
S'The Diary of a Young Girl, also known as The Diary of Anne Frank, is a book of the writings from the Dutch language diary kept by Anne Frank while she was in hiding for two years with her family during the Nazi occupation of the Netherlands.'
p16
sb.(ibook3
Book5
p0
(dp1
S'status'
p2
S'Available'
p3
sS'Status'
p4
S'Available'
p5
sS'name'
p6
S'A Tale Of Two Cities'
p7
sS'author'
p8
S'Charles Dickens'
p9
sS'price'
p10
I250
sS'number'
p11
I28
sS'Qty'
p12
I2
sS'genre'
p13
S'Historical Fiction'
p14
sS'summary'
p15
S'A Tale of Two Cities is a novel by Charles Dickens, set in London and Paris before and during the French Revolution.'
p16
sb.(ibook3
Book5
p0
(dp1
S'status'
p2
S'Available'
p3
sS'Status'
p4
S'Available'
p5
sS'name'
p6
S'Clifford The Big Red Dog'
p7
sS'author'
p8
S'Norman Bridwell'
p9
sS'price'
p10
I200
sS'number'
p11
I29
sS'Qty'
p12
I5
sS'genre'
p13
S'Child'
p14
sS'summary'
p15
S"Clifford the Big Red Dog is an eponymously titled American children's book series about a giant red dog named Clifford. It was first published in 1963 and was written by Norman Bridwell."
p16
sb.(ibook3
Book5
p0
(dp1
S'status'
p2
S'Available'
p3
sS'Status'
p4
S'Available'
p5
sS'name'
p6
S'Winnie The Pooh'
p7
sS'author'
p8
S' A. A. Milne'
p9
sS'price'
p10
I150
sS'number'
p11
I30
sS'Qty'
p12
I7
sS'genre'
p13
S"Short story collection, children's literature"
p14
sS'summary'
p15
S'The book focuses on the adventures of a teddy bear called Winnie-the-Pooh and his friends Piglet, a small toy pig; Eeyore, a toy donkey; Owl, a live owl; and Rabbit, a live rabbit.'
p16
sb.