(iLibraryCard
LibCard
p0
(dp1
S'd'
p2
I1
sS'issued'
p3
(lp4
(S'1.'
p5
S'The Silmarillion'
p6
S' [2]'
p7
S'08-12-2017'
p8
S'returned'
p9
tp10
asS'Number'
p11
I1
sS'Comments'
p12
S'A Comment 1'
p13
sS'buys'
p14
I1
sS'D_o_J'
p15
S'30-11-2017'
p16
sS'Name'
p17
S'Ralph'
p18
sS'issues'
p19
I1
sS'bought'
p20
(lp21
(S'1.'
p22
S'The Secret Garden'
p23
S' [7]'
p24
S'08-12-2017'
p25
tp26
asb.(iLibraryCard
LibCard
p0
(dp1
S'd'
p2
I1
sS'issued'
p3
(lp4
(S'1.'
p5
S'Swordbird'
p6
S' [16]'
p7
S'08-12-2017'
p8
S'pending'
p9
tp10
asS'Number'
p11
I2
sS'Comments'
p12
S'A Comment 2'
p13
sS'buys'
p14
I1
sS'D_o_J'
p15
S'30-11-2017'
p16
sS'Name'
p17
S'Henry'
p18
sS'issues'
p19
I1
sS'bought'
p20
(lp21
(S'1.'
p22
S'Stories I Only Tell My Friends: An Autobiography'
p23
S' [14]'
p24
S'08-12-2017'
p25
tp26
asb.(iLibraryCard
LibCard
p0
(dp1
S'd'
p2
I1
sS'issued'
p3
(lp4
(S'1.'
p5
S'War And Peace'
p6
S' [26]'
p7
S'08-12-2017'
p8
S'pending'
p9
tp10
asS'Number'
p11
I3
sS'Comments'
p12
S'A Comment 3'
p13
sS'buys'
p14
I1
sS'D_o_J'
p15
S'30-11-2017'
p16
sS'Name'
p17
S'Margarette'
p18
sS'issues'
p19
I1
sS'bought'
p20
(lp21
(S'1.'
p22
S'The Sorrow Of Belgium'
p23
S' [19]'
p24
S'08-12-2017'
p25
tp26
asb.(iLibraryCard
LibCard
p0
(dp1
S'd'
p2
I1
sS'issued'
p3
(lp4
(S'1.'
p5
S'Paradise Lost'
p6
S' [8]'
p7
S'08-12-2017'
p8
S'pending'
p9
tp10
a(S'2.'
p11
S'Animal Farm'
p12
S' [10]'
p13
S'08-12-2017'
p14
S'pending'
p15
tp16
asS'Number'
p17
I1
sS'Comments'
p18
S'A Comment 4'
p19
sS'buys'
p20
I2
sS'D_o_J'
p21
S'08-12-2017'
p22
sS'Name'
p23
S'Alvin'
p24
sS'issues'
p25
I3
sS'bought'
p26
(lp27
(S'1.'
p28
S'The Magic Mountain'
p29
S' [9]'
p30
S'08-12-2017'
p31
tp32
a(S'2.'
p33
S'The Alchemist'
p34
S' [24]'
p35
S'08-12-2017'
p36
tp37
asb.(iLibraryCard
LibCard
p0
(dp1
S'd'
p2
I1
sS'issued'
p3
(lp4
sS'Number'
p5
I2
sS'Comments'
p6
S'A Comment 5'
p7
sS'buys'
p8
I0
sS'D_o_J'
p9
S'08-12-2017'
p10
sS'Name'
p11
S'Albert'
p12
sS'issues'
p13
I0
sS'bought'
p14
(lp15
sb.(iLibraryCard
LibCard
p0
(dp1
S'd'
p2
I1
sS'issued'
p3
(lp4
sS'Number'
p5
I1
sS'Comments'
p6
S'A Comment 6'
p7
sS'buys'
p8
I0
sS'D_o_J'
p9
S'08-12-2017'
p10
sS'Name'
p11
S'Mary'
p12
sS'issues'
p13
I0
sS'bought'
p14
(lp15
sb.(iLibraryCard
LibCard
p0
(dp1
S'd'
p2
I1
sS'issued'
p3
(lp4
sS'Number'
p5
I1
sS'Comments'
p6
S'A Comment 7'
p7
sS'buys'
p8
I0
sS'D_o_J'
p9
S'08-12-2017'
p10
sS'Name'
p11
S'Lucy'
p12
sS'issues'
p13
I0
sS'bought'
p14
(lp15
sb.(iLibraryCard
LibCard
p0
(dp1
S'd'
p2
I1
sS'issued'
p3
(lp4
sS'Number'
p5
I2
sS'Comments'
p6
S'A COmment 8'
p7
sS'buys'
p8
I0
sS'D_o_J'
p9
S'08-12-2017'
p10
sS'Name'
p11
S'George'
p12
sS'issues'
p13
I0
sS'bought'
p14
(lp15
sb.(iLibraryCard
LibCard
p0
(dp1
S'd'
p2
I1
sS'issued'
p3
(lp4
(S'1.'
p5
S'Winnie The Pooh'
p6
S' [30]'
p7
S'08-12-2017'
p8
S'pending'
p9
tp10
asS'Number'
p11
I3
sS'Comments'
p12
S'A Comment 9'
p13
sS'buys'
p14
I1
sS'D_o_J'
p15
S'08-12-2017'
p16
sS'Name'
p17
S'Roland'
p18
sS'issues'
p19
I2
sS'bought'
p20
(lp21
(S'1.'
p22
S'Hamlet'
p23
S' [6]'
p24
S'08-12-2017'
p25
tp26
asb.